target datalayout = "e-m:e-p270:32:32-p271:32:32-p272:64:64-i64:64-i128:128-f80:128-n8:16:32:64-S128"
target triple = "x86_64-pc-linux-gnu"

%struct.RelationData = type { %struct.RelFileLocator, ptr, i32, i32, i8, i8, i8, i8, i8, i32, i32, i32, i32, ptr, ptr, i32, %struct.LockInfoData, ptr, ptr, ptr, ptr, ptr, i8, ptr, ptr, ptr, ptr, ptr, ptr, i32, ptr, i8, ptr, ptr, i32, i8, i32, ptr, i8, ptr, ptr, ptr, ptr, ptr, ptr, ptr, i32, ptr, ptr, ptr, ptr, ptr, ptr, ptr, ptr, ptr, ptr, ptr, ptr, ptr, ptr, ptr, ptr, ptr, ptr, ptr, i32, i8, ptr }
%struct.RelFileLocator = type { i32, i32, i32 }
%struct.LockInfoData = type { %struct.LockRelId }
%struct.LockRelId = type { i32, i32 }
%union.LWLockPadded = type { %struct.LWLock, [112 x i8] }
%struct.LWLock = type { i16, %struct.pg_atomic_uint32, %struct.proclist_head }
%struct.pg_atomic_uint32 = type { i32 }
%struct.proclist_head = type { i32, i32 }
%struct.BTVacInfo = type { i16, i32, i32, [0 x %struct.BTOneVacInfo] }
%struct.BTOneVacInfo = type { %struct.LockRelId, i16 }

@MainLWLockArray = external global ptr, align 8
@btvacinfo = internal global ptr null, align 8

; Function Attrs: nounwind uwtable
define dso_local void @_bt_end_vacuum(ptr noundef %0) #0 {
  %2 = alloca ptr, align 8
  %3 = alloca i32, align 4
  %4 = alloca ptr, align 8
  %5 = alloca i32, align 4
  store ptr %0, ptr %2, align 8
  call void @llvm.lifetime.start.p0(i64 4, ptr %3) #8
  %6 = load ptr, ptr @MainLWLockArray, align 8
  %7 = getelementptr inbounds %union.LWLockPadded, ptr %6, i64 20
  %8 = call zeroext i1 @LWLockAcquire(ptr noundef %7, i32 noundef 0)
  store i32 0, ptr %3, align 4
  br label %9

9:                                                ; preds = %60, %1
  %10 = load i32, ptr %3, align 4
  %11 = load ptr, ptr @btvacinfo, align 8
  %12 = getelementptr inbounds nuw %struct.BTVacInfo, ptr %11, i32 0, i32 1
  %13 = load i32, ptr %12, align 4
  %14 = icmp slt i32 %10, %13
  br i1 %14, label %15, label %63

15:                                               ; preds = %9
  call void @llvm.lifetime.start.p0(i64 8, ptr %4) #8
  %16 = load ptr, ptr @btvacinfo, align 8
  %17 = getelementptr inbounds nuw %struct.BTVacInfo, ptr %16, i32 0, i32 3
  %18 = load i32, ptr %3, align 4
  %19 = sext i32 %18 to i64
  %20 = getelementptr inbounds [0 x %struct.BTOneVacInfo], ptr %17, i64 0, i64 %19
  store ptr %20, ptr %4, align 8
  %21 = load ptr, ptr %4, align 8
  %22 = getelementptr inbounds nuw %struct.BTOneVacInfo, ptr %21, i32 0, i32 0
  %23 = getelementptr inbounds nuw %struct.LockRelId, ptr %22, i32 0, i32 0
  %24 = load i32, ptr %23, align 4
  %25 = load ptr, ptr %2, align 8
  %26 = getelementptr inbounds nuw %struct.RelationData, ptr %25, i32 0, i32 16
  %27 = getelementptr inbounds nuw %struct.LockInfoData, ptr %26, i32 0, i32 0
  %28 = getelementptr inbounds nuw %struct.LockRelId, ptr %27, i32 0, i32 0
  %29 = load i32, ptr %28, align 4
  %30 = icmp eq i32 %24, %29
  br i1 %30, label %31, label %56

31:                                               ; preds = %15
  %32 = load ptr, ptr %4, align 8
  %33 = getelementptr inbounds nuw %struct.BTOneVacInfo, ptr %32, i32 0, i32 0
  %34 = getelementptr inbounds nuw %struct.LockRelId, ptr %33, i32 0, i32 1
  %35 = load i32, ptr %34, align 4
  %36 = load ptr, ptr %2, align 8
  %37 = getelementptr inbounds nuw %struct.RelationData, ptr %36, i32 0, i32 16
  %38 = getelementptr inbounds nuw %struct.LockInfoData, ptr %37, i32 0, i32 0
  %39 = getelementptr inbounds nuw %struct.LockRelId, ptr %38, i32 0, i32 1
  %40 = load i32, ptr %39, align 4
  %41 = icmp eq i32 %35, %40
  br i1 %41, label %42, label %56

42:                                               ; preds = %31
  %43 = load ptr, ptr %4, align 8
  %44 = load ptr, ptr @btvacinfo, align 8
  %45 = getelementptr inbounds nuw %struct.BTVacInfo, ptr %44, i32 0, i32 3
  %46 = load ptr, ptr @btvacinfo, align 8
  %47 = getelementptr inbounds nuw %struct.BTVacInfo, ptr %46, i32 0, i32 1
  %48 = load i32, ptr %47, align 4
  %49 = sub i32 %48, 1
  %50 = sext i32 %49 to i64
  %51 = getelementptr inbounds [0 x %struct.BTOneVacInfo], ptr %45, i64 0, i64 %50
  call void @llvm.memcpy.p0.p0.i64(ptr align 4 %43, ptr align 4 %51, i64 12, i1 false)
  %52 = load ptr, ptr @btvacinfo, align 8
  %53 = getelementptr inbounds nuw %struct.BTVacInfo, ptr %52, i32 0, i32 1
  %54 = load i32, ptr %53, align 4
  %55 = add i32 %54, -1
  store i32 %55, ptr %53, align 4
  store i32 2, ptr %5, align 4
  br label %57

56:                                               ; preds = %31, %15
  store i32 0, ptr %5, align 4
  br label %57

57:                                               ; preds = %56, %42
  call void @llvm.lifetime.end.p0(i64 8, ptr %4) #8
  %58 = load i32, ptr %5, align 4
  switch i32 %58, label %66 [
    i32 0, label %59
    i32 2, label %63
  ]

59:                                               ; preds = %57
  br label %60

60:                                               ; preds = %59
  %61 = load i32, ptr %3, align 4
  %62 = add i32 %61, 1
  store i32 %62, ptr %3, align 4
  br label %9, !llvm.loop !19

63:                                               ; preds = %57, %9
  %64 = load ptr, ptr @MainLWLockArray, align 8
  %65 = getelementptr inbounds %union.LWLockPadded, ptr %64, i64 20
  call void @LWLockRelease(ptr noundef %65)
  call void @llvm.lifetime.end.p0(i64 4, ptr %3) #8
  ret void

66:                                               ; preds = %57
  unreachable
}